target datalayout = "e-m:e-p270:32:32-p271:32:32-p272:64:64-i64:64-i128:128-f80:128-n8:16:32:64-S128"
target triple = "x86_64-pc-linux-gnu"

%struct.quicklistNode = type { ptr, ptr, ptr, i64, i32 }

; Function Attrs: nounwind uwtable
define dso_local ptr @quicklistCreateNode() #0 {
  %1 = alloca ptr, align 8
  call void @llvm.lifetime.start.p0(i64 8, ptr %1) #10
  %2 = call noalias ptr @zmalloc(i64 noundef 40) #11
  store ptr %2, ptr %1, align 8, !tbaa !12
  %3 = load ptr, ptr %1, align 8, !tbaa !12
  %4 = getelementptr inbounds nuw %struct.quicklistNode, ptr %3, i32 0, i32 2
  store ptr null, ptr %4, align 8, !tbaa !16
  %5 = load ptr, ptr %1, align 8, !tbaa !12
  %6 = getelementptr inbounds nuw %struct.quicklistNode, ptr %5, i32 0, i32 4
  %7 = load i32, ptr %6, align 8
  %8 = and i32 %7, -65536
  %9 = or i32 %8, 0
  store i32 %9, ptr %6, align 8
  %10 = load ptr, ptr %1, align 8, !tbaa !12
  %11 = getelementptr inbounds nuw %struct.quicklistNode, ptr %10, i32 0, i32 3
  store i64 0, ptr %11, align 8, !tbaa !19
  %12 = load ptr, ptr %1, align 8, !tbaa !12
  %13 = getelementptr inbounds nuw %struct.quicklistNode, ptr %12, i32 0, i32 0
  store ptr null, ptr %13, align 8, !tbaa !20
  %14 = load ptr, ptr %1, align 8, !tbaa !12
  %15 = getelementptr inbounds nuw %struct.quicklistNode, ptr %14, i32 0, i32 1
  store ptr null, ptr %15, align 8, !tbaa !21
  %16 = load ptr, ptr %1, align 8, !tbaa !12
  %17 = getelementptr inbounds nuw %struct.quicklistNode, ptr %16, i32 0, i32 4
  %18 = load i32, ptr %17, align 8
  %19 = and i32 %18, -196609
  %20 = or i32 %19, 65536
  store i32 %20, ptr %17, align 8
  %21 = load ptr, ptr %1, align 8, !tbaa !12
  %22 = getelementptr inbounds nuw %struct.quicklistNode, ptr %21, i32 0, i32 4
  %23 = load i32, ptr %22, align 8
  %24 = and i32 %23, -786433
  %25 = or i32 %24, 524288
  store i32 %25, ptr %22, align 8
  %26 = load ptr, ptr %1, align 8, !tbaa !12
  %27 = getelementptr inbounds nuw %struct.quicklistNode, ptr %26, i32 0, i32 4
  %28 = load i32, ptr %27, align 8
  %29 = and i32 %28, -1048577
  %30 = or i32 %29, 0
  store i32 %30, ptr %27, align 8
  %31 = load ptr, ptr %1, align 8, !tbaa !12
  %32 = getelementptr inbounds nuw %struct.quicklistNode, ptr %31, i32 0, i32 4
  %33 = load i32, ptr %32, align 8
  %34 = and i32 %33, -4194305
  %35 = or i32 %34, 0
  store i32 %35, ptr %32, align 8
  %36 = load ptr, ptr %1, align 8, !tbaa !12
  call void @llvm.lifetime.end.p0(i64 8, ptr %1) #10
  ret ptr %36
}