; Function Attrs: nounwind uwtable
define dso_local noalias noundef ptr @quicklistCreateNode() local_unnamed_addr #1 {
  %1 = tail call noalias dereferenceable_or_null(40) ptr @zmalloc(i64 noundef 40) #22
  %2 = getelementptr inbounds nuw i8, ptr %1, i64 16
  store ptr null, ptr %2, align 8, !tbaa !9
  %3 = getelementptr inbounds nuw i8, ptr %1, i64 32
  %4 = load i32, ptr %3, align 8
  %5 = getelementptr inbounds nuw i8, ptr %1, i64 24
  store i64 0, ptr %5, align 8, !tbaa !15
  %6 = and i32 %4, -6291456
  %7 = or disjoint i32 %6, 589824
  tail call void @llvm.memset.p0.i64(ptr noundef nonnull align 8 dereferenceable(16) %1, i8 0, i64 16, i1 false)
  store i32 %7, ptr %3, align 8
  ret ptr %1
}